target datalayout = "e-m:e-p270:32:32-p271:32:32-p272:64:64-i64:64-i128:128-f80:128-n8:16:32:64-S128"
target triple = "x86_64-pc-linux-gnu"

%struct.Curl_addrinfo = type { i32, i32, i32, i32, i32, ptr, ptr, ptr }
%struct.sockaddr_in = type { i16, i16, %struct.in_addr, [8 x i8] }
%struct.in_addr = type { i32 }
%struct.sockaddr_in6 = type { i16, i16, i32, %struct.in6_addr, i32 }
%struct.in6_addr = type { %union.anon }
%union.anon = type { [4 x i32] }

@Curl_ccalloc = external global ptr, align 8

; Function Attrs: inlinehint nounwind uwtable
define internal zeroext i16 @__bswap_16(i16 noundef zeroext %0) #6 {
  %2 = alloca i16, align 2
  store i16 %0, ptr %2, align 2, !tbaa !55
  %3 = load i16, ptr %2, align 2, !tbaa !55
  %4 = zext i16 %3 to i32
  %5 = ashr i32 %4, 8
  %6 = and i32 %5, 255
  %7 = load i16, ptr %2, align 2, !tbaa !55
  %8 = zext i16 %7 to i32
  %9 = and i32 %8, 255
  %10 = shl i32 %9, 8
  %11 = or i32 %6, %10
  %12 = trunc i32 %11 to i16
  ret i16 %12
}

; Function Attrs: nounwind uwtable
define dso_local ptr @Curl_ip2addr(i32 noundef %0, ptr noundef %1, ptr noundef %2, i32 noundef %3) #0 {
  %5 = alloca ptr, align 8
  %6 = alloca i32, align 4
  %7 = alloca ptr, align 8
  %8 = alloca ptr, align 8
  %9 = alloca i32, align 4
  %10 = alloca ptr, align 8
  %11 = alloca i64, align 8
  %12 = alloca i64, align 8
  %13 = alloca ptr, align 8
  %14 = alloca ptr, align 8
  %15 = alloca i32, align 4
  store i32 %0, ptr %6, align 4, !tbaa !22
  store ptr %1, ptr %7, align 8, !tbaa !14
  store ptr %2, ptr %8, align 8, !tbaa !17
  store i32 %3, ptr %9, align 4, !tbaa !22
  call void @llvm.lifetime.start.p0(i64 8, ptr %10) #7
  call void @llvm.lifetime.start.p0(i64 8, ptr %11) #7
  call void @llvm.lifetime.start.p0(i64 8, ptr %12) #7
  call void @llvm.lifetime.start.p0(i64 8, ptr %13) #7
  call void @llvm.lifetime.start.p0(i64 8, ptr %14) #7
  br label %16

16:                                               ; preds = %4
  br label %17

17:                                               ; preds = %16
  br label %18

18:                                               ; preds = %17
  %19 = load ptr, ptr %8, align 8, !tbaa !17
  %20 = call i64 @strlen(ptr noundef %19) #8
  %21 = add i64 %20, 1
  store i64 %21, ptr %12, align 8, !tbaa !25
  %22 = load i32, ptr %6, align 4, !tbaa !22
  %23 = icmp eq i32 %22, 2
  br i1 %23, label %24, label %25

24:                                               ; preds = %18
  store i64 16, ptr %11, align 8, !tbaa !25
  br label %31

25:                                               ; preds = %18
  %26 = load i32, ptr %6, align 4, !tbaa !22
  %27 = icmp eq i32 %26, 10
  br i1 %27, label %28, label %29

28:                                               ; preds = %25
  store i64 28, ptr %11, align 8, !tbaa !25
  br label %30

29:                                               ; preds = %25
  store ptr null, ptr %5, align 8
  store i32 1, ptr %15, align 4
  br label %102

30:                                               ; preds = %28
  br label %31

31:                                               ; preds = %30, %24
  %32 = load ptr, ptr @Curl_ccalloc, align 8, !tbaa !14
  %33 = load i64, ptr %11, align 8, !tbaa !25
  %34 = add i64 48, %33
  %35 = load i64, ptr %12, align 8, !tbaa !25
  %36 = add i64 %34, %35
  %37 = call ptr %32(i64 noundef 1, i64 noundef %36)
  store ptr %37, ptr %10, align 8, !tbaa !4
  %38 = load ptr, ptr %10, align 8, !tbaa !4
  %39 = icmp ne ptr %38, null
  br i1 %39, label %41, label %40

40:                                               ; preds = %31
  store ptr null, ptr %5, align 8
  store i32 1, ptr %15, align 4
  br label %102

41:                                               ; preds = %31
  %42 = load ptr, ptr %10, align 8, !tbaa !4
  %43 = getelementptr inbounds nuw i8, ptr %42, i64 48
  %44 = load ptr, ptr %10, align 8, !tbaa !4
  %45 = getelementptr inbounds nuw %struct.Curl_addrinfo, ptr %44, i32 0, i32 6
  store ptr %43, ptr %45, align 8, !tbaa !38
  %46 = load ptr, ptr %10, align 8, !tbaa !4
  %47 = getelementptr inbounds nuw %struct.Curl_addrinfo, ptr %46, i32 0, i32 6
  %48 = load ptr, ptr %47, align 8, !tbaa !38
  %49 = load i64, ptr %11, align 8, !tbaa !25
  %50 = getelementptr inbounds nuw i8, ptr %48, i64 %49
  %51 = load ptr, ptr %10, align 8, !tbaa !4
  %52 = getelementptr inbounds nuw %struct.Curl_addrinfo, ptr %51, i32 0, i32 5
  store ptr %50, ptr %52, align 8, !tbaa !39
  %53 = load ptr, ptr %10, align 8, !tbaa !4
  %54 = getelementptr inbounds nuw %struct.Curl_addrinfo, ptr %53, i32 0, i32 5
  %55 = load ptr, ptr %54, align 8, !tbaa !39
  %56 = load ptr, ptr %8, align 8, !tbaa !17
  %57 = load i64, ptr %12, align 8, !tbaa !25
  call void @llvm.memcpy.p0.p0.i64(ptr align 1 %55, ptr align 1 %56, i64 %57, i1 false)
  %58 = load i32, ptr %6, align 4, !tbaa !22
  %59 = load ptr, ptr %10, align 8, !tbaa !4
  %60 = getelementptr inbounds nuw %struct.Curl_addrinfo, ptr %59, i32 0, i32 1
  store i32 %58, ptr %60, align 4, !tbaa !32
  %61 = load ptr, ptr %10, align 8, !tbaa !4
  %62 = getelementptr inbounds nuw %struct.Curl_addrinfo, ptr %61, i32 0, i32 2
  store i32 1, ptr %62, align 8, !tbaa !34
  %63 = load i64, ptr %11, align 8, !tbaa !25
  %64 = trunc i64 %63 to i32
  %65 = load ptr, ptr %10, align 8, !tbaa !4
  %66 = getelementptr inbounds nuw %struct.Curl_addrinfo, ptr %65, i32 0, i32 4
  store i32 %64, ptr %66, align 8, !tbaa !37
  %67 = load i32, ptr %6, align 4, !tbaa !22
  switch i32 %67, label %100 [
    i32 2, label %68
    i32 10, label %84
  ]

68:                                               ; preds = %41
  %69 = load ptr, ptr %10, align 8, !tbaa !4
  %70 = getelementptr inbounds nuw %struct.Curl_addrinfo, ptr %69, i32 0, i32 6
  %71 = load ptr, ptr %70, align 8, !tbaa !38
  store ptr %71, ptr %13, align 8, !tbaa !42
  %72 = load ptr, ptr %13, align 8, !tbaa !42
  %73 = getelementptr inbounds nuw %struct.sockaddr_in, ptr %72, i32 0, i32 2
  %74 = load ptr, ptr %7, align 8, !tbaa !14
  call void @llvm.memcpy.p0.p0.i64(ptr align 4 %73, ptr align 1 %74, i64 4, i1 false)
  %75 = load i32, ptr %6, align 4, !tbaa !22
  %76 = trunc i32 %75 to i16
  %77 = load ptr, ptr %13, align 8, !tbaa !42
  %78 = getelementptr inbounds nuw %struct.sockaddr_in, ptr %77, i32 0, i32 0
  store i16 %76, ptr %78, align 4, !tbaa !44
  %79 = load i32, ptr %9, align 4, !tbaa !22
  %80 = trunc i32 %79 to i16
  %81 = call zeroext i16 @__bswap_16(i16 noundef zeroext %80)
  %82 = load ptr, ptr %13, align 8, !tbaa !42
  %83 = getelementptr inbounds nuw %struct.sockaddr_in, ptr %82, i32 0, i32 1
  store i16 %81, ptr %83, align 2, !tbaa !48
  br label %100

84:                                               ; preds = %41
  %85 = load ptr, ptr %10, align 8, !tbaa !4
  %86 = getelementptr inbounds nuw %struct.Curl_addrinfo, ptr %85, i32 0, i32 6
  %87 = load ptr, ptr %86, align 8, !tbaa !38
  store ptr %87, ptr %14, align 8, !tbaa !49
  %88 = load ptr, ptr %14, align 8, !tbaa !49
  %89 = getelementptr inbounds nuw %struct.sockaddr_in6, ptr %88, i32 0, i32 3
  %90 = load ptr, ptr %7, align 8, !tbaa !14
  call void @llvm.memcpy.p0.p0.i64(ptr align 4 %89, ptr align 1 %90, i64 16, i1 false)
  %91 = load i32, ptr %6, align 4, !tbaa !22
  %92 = trunc i32 %91 to i16
  %93 = load ptr, ptr %14, align 8, !tbaa !49
  %94 = getelementptr inbounds nuw %struct.sockaddr_in6, ptr %93, i32 0, i32 0
  store i16 %92, ptr %94, align 4, !tbaa !51
  %95 = load i32, ptr %9, align 4, !tbaa !22
  %96 = trunc i32 %95 to i16
  %97 = call zeroext i16 @__bswap_16(i16 noundef zeroext %96)
  %98 = load ptr, ptr %14, align 8, !tbaa !49
  %99 = getelementptr inbounds nuw %struct.sockaddr_in6, ptr %98, i32 0, i32 1
  store i16 %97, ptr %99, align 2, !tbaa !54
  br label %100

100:                                              ; preds = %41, %84, %68
  %101 = load ptr, ptr %10, align 8, !tbaa !4
  store ptr %101, ptr %5, align 8
  store i32 1, ptr %15, align 4
  br label %102

102:                                              ; preds = %100, %40, %29
  call void @llvm.lifetime.end.p0(i64 8, ptr %14) #7
  call void @llvm.lifetime.end.p0(i64 8, ptr %13) #7
  call void @llvm.lifetime.end.p0(i64 8, ptr %12) #7
  call void @llvm.lifetime.end.p0(i64 8, ptr %11) #7
  call void @llvm.lifetime.end.p0(i64 8, ptr %10) #7
  %103 = load ptr, ptr %5, align 8
  ret ptr %103
}

; Function Attrs: nounwind uwtable
define dso_local ptr @Curl_str2addr(ptr noundef %0, i32 noundef %1) #0 {
  %3 = alloca ptr, align 8
  %4 = alloca ptr, align 8
  %5 = alloca i32, align 4
  %6 = alloca %struct.in_addr, align 4
  %7 = alloca i32, align 4
  %8 = alloca %struct.in6_addr, align 4
  store ptr %0, ptr %4, align 8, !tbaa !17
  store i32 %1, ptr %5, align 4, !tbaa !22
  call void @llvm.lifetime.start.p0(i64 4, ptr %6) #7
  %9 = load ptr, ptr %4, align 8, !tbaa !17
  %10 = call i32 @inet_pton(i32 noundef 2, ptr noundef %9, ptr noundef %6) #7
  %11 = icmp sgt i32 %10, 0
  br i1 %11, label %12, label %16

12:                                               ; preds = %2
  %13 = load ptr, ptr %4, align 8, !tbaa !17
  %14 = load i32, ptr %5, align 4, !tbaa !22
  %15 = call ptr @Curl_ip2addr(i32 noundef 2, ptr noundef %6, ptr noundef %13, i32 noundef %14)
  store ptr %15, ptr %3, align 8
  store i32 1, ptr %7, align 4
  br label %28

16:                                               ; preds = %2
  call void @llvm.lifetime.start.p0(i64 16, ptr %8) #7
  %17 = load ptr, ptr %4, align 8, !tbaa !17
  %18 = call i32 @inet_pton(i32 noundef 10, ptr noundef %17, ptr noundef %8) #7
  %19 = icmp sgt i32 %18, 0
  br i1 %19, label %20, label %24

20:                                               ; preds = %16
  %21 = load ptr, ptr %4, align 8, !tbaa !17
  %22 = load i32, ptr %5, align 4, !tbaa !22
  %23 = call ptr @Curl_ip2addr(i32 noundef 10, ptr noundef %8, ptr noundef %21, i32 noundef %22)
  store ptr %23, ptr %3, align 8
  store i32 1, ptr %7, align 4
  br label %25

24:                                               ; preds = %16
  store i32 0, ptr %7, align 4
  br label %25

25:                                               ; preds = %24, %20
  call void @llvm.lifetime.end.p0(i64 16, ptr %8) #7
  %26 = load i32, ptr %7, align 4
  switch i32 %26, label %28 [
    i32 0, label %27
  ]

27:                                               ; preds = %25
  store ptr null, ptr %3, align 8
  store i32 1, ptr %7, align 4
  br label %28

28:                                               ; preds = %27, %25, %12
  call void @llvm.lifetime.end.p0(i64 4, ptr %6) #7
  %29 = load ptr, ptr %3, align 8
  ret ptr %29
}